target datalayout = "e-m:e-p270:32:32-p271:32:32-p272:64:64-i64:64-i128:128-f80:128-n8:16:32:64-S128"
target triple = "x86_64-pc-linux-gnu"

%struct.ocsp_request_st = type { %struct.ocsp_req_info_st, ptr }
%struct.ocsp_req_info_st = type { ptr, ptr, ptr, ptr }
%struct.ocsp_basic_response_st = type { %struct.ocsp_response_data_st, %struct.X509_algor_st, ptr, ptr }
%struct.ocsp_response_data_st = type { ptr, %struct.ocsp_responder_id_st, ptr, ptr, ptr }
%struct.ocsp_responder_id_st = type { i32, %union.anon }
%union.anon = type { ptr }
%struct.X509_algor_st = type { ptr, ptr }

; Function Attrs: nounwind uwtable
define i32 @OCSP_BASICRESP_add_ext(ptr noundef %0, ptr noundef %1, i32 noundef %2) #0 {
  %4 = alloca ptr, align 8
  %5 = alloca ptr, align 8
  %6 = alloca i32, align 4
  store ptr %0, ptr %4, align 8, !tbaa !32
  store ptr %1, ptr %5, align 8, !tbaa !25
  store i32 %2, ptr %6, align 4, !tbaa !16
  %7 = load ptr, ptr %4, align 8, !tbaa !32
  %8 = getelementptr inbounds nuw %struct.ocsp_basic_response_st, ptr %7, i32 0, i32 0
  %9 = getelementptr inbounds nuw %struct.ocsp_response_data_st, ptr %8, i32 0, i32 4
  %10 = load ptr, ptr %5, align 8, !tbaa !25
  %11 = load i32, ptr %6, align 4, !tbaa !16
  %12 = call ptr @X509v3_add_ext(ptr noundef %9, ptr noundef %10, i32 noundef %11)
  %13 = icmp ne ptr %12, null
  %14 = zext i1 %13 to i32
  ret i32 %14
}

; Function Attrs: nounwind uwtable
define ptr @OCSP_REQUEST_get_ext(ptr noundef %0, i32 noundef %1) #0 {
  %3 = alloca ptr, align 8
  %4 = alloca i32, align 4
  store ptr %0, ptr %3, align 8, !tbaa !3
  store i32 %1, ptr %4, align 4, !tbaa !16
  %5 = load ptr, ptr %3, align 8, !tbaa !3
  %6 = getelementptr inbounds nuw %struct.ocsp_request_st, ptr %5, i32 0, i32 0
  %7 = getelementptr inbounds nuw %struct.ocsp_req_info_st, ptr %6, i32 0, i32 3
  %8 = load ptr, ptr %7, align 8, !tbaa !8
  %9 = load i32, ptr %4, align 4, !tbaa !16
  %10 = call ptr @X509v3_get_ext(ptr noundef %8, i32 noundef %9)
  ret ptr %10
}

; Function Attrs: nounwind uwtable
define i32 @OCSP_REQUEST_get_ext_by_NID(ptr noundef %0, i32 noundef %1, i32 noundef %2) #0 {
  %4 = alloca ptr, align 8
  %5 = alloca i32, align 4
  %6 = alloca i32, align 4
  store ptr %0, ptr %4, align 8, !tbaa !3
  store i32 %1, ptr %5, align 4, !tbaa !16
  store i32 %2, ptr %6, align 4, !tbaa !16
  %7 = load ptr, ptr %4, align 8, !tbaa !3
  %8 = getelementptr inbounds nuw %struct.ocsp_request_st, ptr %7, i32 0, i32 0
  %9 = getelementptr inbounds nuw %struct.ocsp_req_info_st, ptr %8, i32 0, i32 3
  %10 = load ptr, ptr %9, align 8, !tbaa !8
  %11 = load i32, ptr %5, align 4, !tbaa !16
  %12 = load i32, ptr %6, align 4, !tbaa !16
  %13 = call i32 @X509v3_get_ext_by_NID(ptr noundef %10, i32 noundef %11, i32 noundef %12)
  ret i32 %13
}

; Function Attrs: nounwind uwtable
define i32 @OCSP_copy_nonce(ptr noundef %0, ptr noundef %1) #0 {
  %3 = alloca i32, align 4
  %4 = alloca ptr, align 8
  %5 = alloca ptr, align 8
  %6 = alloca ptr, align 8
  %7 = alloca i32, align 4
  %8 = alloca i32, align 4
  store ptr %0, ptr %4, align 8, !tbaa !32
  store ptr %1, ptr %5, align 8, !tbaa !3
  call void @llvm.lifetime.start.p0(i64 8, ptr %6) #5
  call void @llvm.lifetime.start.p0(i64 4, ptr %7) #5
  %9 = load ptr, ptr %5, align 8, !tbaa !3
  %10 = call i32 @OCSP_REQUEST_get_ext_by_NID(ptr noundef %9, i32 noundef 366, i32 noundef -1)
  store i32 %10, ptr %7, align 4, !tbaa !16
  %11 = load i32, ptr %7, align 4, !tbaa !16
  %12 = icmp slt i32 %11, 0
  br i1 %12, label %13, label %14

13:                                               ; preds = %2
  store i32 2, ptr %3, align 4
  store i32 1, ptr %8, align 4
  br label %21

14:                                               ; preds = %2
  %15 = load ptr, ptr %5, align 8, !tbaa !3
  %16 = load i32, ptr %7, align 4, !tbaa !16
  %17 = call ptr @OCSP_REQUEST_get_ext(ptr noundef %15, i32 noundef %16)
  store ptr %17, ptr %6, align 8, !tbaa !25
  %18 = load ptr, ptr %4, align 8, !tbaa !32
  %19 = load ptr, ptr %6, align 8, !tbaa !25
  %20 = call i32 @OCSP_BASICRESP_add_ext(ptr noundef %18, ptr noundef %19, i32 noundef -1)
  store i32 %20, ptr %3, align 4
  store i32 1, ptr %8, align 4
  br label %21

21:                                               ; preds = %14, %13
  call void @llvm.lifetime.end.p0(i64 4, ptr %7) #5
  call void @llvm.lifetime.end.p0(i64 8, ptr %6) #5
  %22 = load i32, ptr %3, align 4
  ret i32 %22
}