; Function Attrs: nounwind uwtable
define range(i32 0, 3) i32 @OCSP_copy_nonce(ptr noundef %0, ptr noundef readonly captures(none) %1) local_unnamed_addr #0 {
  %3 = getelementptr inbounds nuw i8, ptr %1, i64 24
  %4 = load ptr, ptr %3, align 8, !tbaa !3
  %5 = tail call i32 @X509v3_get_ext_by_NID(ptr noundef %4, i32 noundef 366, i32 noundef -1) #4
  %6 = icmp slt i32 %5, 0
  br i1 %6, label %14, label %7

7:                                                ; preds = %2
  %8 = load ptr, ptr %3, align 8, !tbaa !3
  %9 = tail call ptr @X509v3_get_ext(ptr noundef %8, i32 noundef %5) #4
  %10 = getelementptr inbounds nuw i8, ptr %0, i64 40
  %11 = tail call ptr @X509v3_add_ext(ptr noundef nonnull %10, ptr noundef %9, i32 noundef -1) #4
  %12 = icmp ne ptr %11, null
  %13 = zext i1 %12 to i32
  br label %14

14:                                               ; preds = %2, %7
  %.0 = phi i32 [ %13, %7 ], [ 2, %2 ]
  ret i32 %.0
}